target datalayout = "e-m:e-p270:32:32-p271:32:32-p272:64:64-i64:64-i128:128-f80:128-n8:16:32:64-S128"
target triple = "x86_64-pc-linux-gnu"

%struct.cf_setup_ctx = type { i32, ptr, i32, i32 }

@Curl_cfree = external global ptr, align 8
@Curl_ccalloc = external global ptr, align 8

; Function Attrs: nounwind uwtable
define internal i32 @cf_setup_create(ptr noundef %0, ptr noundef %1, ptr noundef %2, i32 noundef %3, i32 noundef %4) #0 {
  %6 = alloca ptr, align 8
  %7 = alloca ptr, align 8
  %8 = alloca ptr, align 8
  %9 = alloca i32, align 4
  %10 = alloca i32, align 4
  %11 = alloca ptr, align 8
  %12 = alloca ptr, align 8
  %13 = alloca i32, align 4
  store ptr %0, ptr %6, align 8, !tbaa !185
  store ptr %1, ptr %7, align 8, !tbaa !10
  store ptr %2, ptr %8, align 8, !tbaa !184
  store i32 %3, ptr %9, align 4, !tbaa !86
  store i32 %4, ptr %10, align 4, !tbaa !86
  call void @llvm.lifetime.start.p0(i64 8, ptr %11) #8
  store ptr null, ptr %11, align 8, !tbaa !127
  call void @llvm.lifetime.start.p0(i64 8, ptr %12) #8
  call void @llvm.lifetime.start.p0(i64 4, ptr %13) #8
  store i32 0, ptr %13, align 4, !tbaa !86
  %14 = load ptr, ptr @Curl_ccalloc, align 8, !tbaa !140
  %15 = call ptr %14(i64 noundef 1, i64 noundef 24)
  store ptr %15, ptr %12, align 8, !tbaa !174
  %16 = load ptr, ptr %12, align 8, !tbaa !174
  %17 = icmp ne ptr %16, null
  br i1 %17, label %19, label %18

18:                                               ; preds = %5
  store i32 27, ptr %13, align 4, !tbaa !86
  br label %37

19:                                               ; preds = %5
  %20 = load ptr, ptr %12, align 8, !tbaa !174
  %21 = getelementptr inbounds nuw %struct.cf_setup_ctx, ptr %20, i32 0, i32 0
  store i32 0, ptr %21, align 8, !tbaa !176
  %22 = load ptr, ptr %8, align 8, !tbaa !184
  %23 = load ptr, ptr %12, align 8, !tbaa !174
  %24 = getelementptr inbounds nuw %struct.cf_setup_ctx, ptr %23, i32 0, i32 1
  store ptr %22, ptr %24, align 8, !tbaa !178
  %25 = load i32, ptr %10, align 4, !tbaa !86
  %26 = load ptr, ptr %12, align 8, !tbaa !174
  %27 = getelementptr inbounds nuw %struct.cf_setup_ctx, ptr %26, i32 0, i32 2
  store i32 %25, ptr %27, align 8, !tbaa !182
  %28 = load i32, ptr %9, align 4, !tbaa !86
  %29 = load ptr, ptr %12, align 8, !tbaa !174
  %30 = getelementptr inbounds nuw %struct.cf_setup_ctx, ptr %29, i32 0, i32 3
  store i32 %28, ptr %30, align 4, !tbaa !179
  %31 = load ptr, ptr %12, align 8, !tbaa !174
  %32 = call i32 @Curl_cf_create(ptr noundef %11, ptr noundef @Curl_cft_setup, ptr noundef %31)
  store i32 %32, ptr %13, align 4, !tbaa !86
  %33 = load i32, ptr %13, align 4, !tbaa !86
  %34 = icmp ne i32 %33, 0
  br i1 %34, label %35, label %36

35:                                               ; preds = %19
  br label %37

36:                                               ; preds = %19
  store ptr null, ptr %12, align 8, !tbaa !174
  br label %37

37:                                               ; preds = %36, %35, %18
  %38 = load i32, ptr %13, align 4, !tbaa !86
  %39 = icmp ne i32 %38, 0
  br i1 %39, label %40, label %41

40:                                               ; preds = %37
  br label %43

41:                                               ; preds = %37
  %42 = load ptr, ptr %11, align 8, !tbaa !127
  br label %43

43:                                               ; preds = %41, %40
  %44 = phi ptr [ null, %40 ], [ %42, %41 ]
  %45 = load ptr, ptr %6, align 8, !tbaa !185
  store ptr %44, ptr %45, align 8, !tbaa !127
  %46 = load ptr, ptr @Curl_cfree, align 8, !tbaa !140
  %47 = load ptr, ptr %12, align 8, !tbaa !174
  call void %46(ptr noundef %47)
  %48 = load i32, ptr %13, align 4, !tbaa !86
  call void @llvm.lifetime.end.p0(i64 4, ptr %13) #8
  call void @llvm.lifetime.end.p0(i64 8, ptr %12) #8
  call void @llvm.lifetime.end.p0(i64 8, ptr %11) #8
  ret i32 %48
}

; Function Attrs: nounwind uwtable
define hidden i32 @Curl_cf_setup_insert_after(ptr noundef %0, ptr noundef %1, ptr noundef %2, i32 noundef %3, i32 noundef %4) #0 {
  %6 = alloca ptr, align 8
  %7 = alloca ptr, align 8
  %8 = alloca ptr, align 8
  %9 = alloca i32, align 4
  %10 = alloca i32, align 4
  %11 = alloca ptr, align 8
  %12 = alloca i32, align 4
  store ptr %0, ptr %6, align 8, !tbaa !127
  store ptr %1, ptr %7, align 8, !tbaa !10
  store ptr %2, ptr %8, align 8, !tbaa !184
  store i32 %3, ptr %9, align 4, !tbaa !86
  store i32 %4, ptr %10, align 4, !tbaa !86
  call void @llvm.lifetime.start.p0(i64 8, ptr %11) #8
  call void @llvm.lifetime.start.p0(i64 4, ptr %12) #8
  br label %13

13:                                               ; preds = %5
  br label %14

14:                                               ; preds = %13
  br label %15

15:                                               ; preds = %14
  %16 = load ptr, ptr %7, align 8, !tbaa !10
  %17 = load ptr, ptr %8, align 8, !tbaa !184
  %18 = load i32, ptr %9, align 4, !tbaa !86
  %19 = load i32, ptr %10, align 4, !tbaa !86
  %20 = call i32 @cf_setup_create(ptr noundef %11, ptr noundef %16, ptr noundef %17, i32 noundef %18, i32 noundef %19)
  store i32 %20, ptr %12, align 4, !tbaa !86
  %21 = load i32, ptr %12, align 4, !tbaa !86
  %22 = icmp ne i32 %21, 0
  br i1 %22, label %23, label %24

23:                                               ; preds = %15
  br label %27

24:                                               ; preds = %15
  %25 = load ptr, ptr %6, align 8, !tbaa !127
  %26 = load ptr, ptr %11, align 8, !tbaa !127
  call void @Curl_conn_cf_insert_after(ptr noundef %25, ptr noundef %26)
  br label %27

27:                                               ; preds = %24, %23
  %28 = load i32, ptr %12, align 4, !tbaa !86
  call void @llvm.lifetime.end.p0(i64 4, ptr %12) #8
  call void @llvm.lifetime.end.p0(i64 8, ptr %11) #8
  ret i32 %28
}