; Function Attrs: nounwind uwtable
define hidden noundef i32 @Curl_cf_setup_insert_after(ptr noundef %0, ptr noundef readnone captures(none) %1, ptr noundef %2, i32 noundef %3, i32 noundef %4) local_unnamed_addr #0 {
  %6 = alloca ptr, align 8
  call void @llvm.lifetime.start.p0(i64 8, ptr nonnull %6) #10
  store ptr null, ptr %6, align 8, !tbaa !187
  %7 = load ptr, ptr @Curl_ccalloc, align 8, !tbaa !120
  %8 = tail call ptr %7(i64 noundef 1, i64 noundef 24) #10
  %.not.i = icmp eq ptr %8, null
  br i1 %.not.i, label %cf_setup_create.exit.thread, label %cf_setup_create.exit

cf_setup_create.exit.thread:                      ; preds = %5
  %9 = load ptr, ptr @Curl_cfree, align 8, !tbaa !120
  tail call void %9(ptr noundef null) #10
  call void @llvm.lifetime.end.p0(i64 8, ptr nonnull %6) #10
  br label %17

cf_setup_create.exit:                             ; preds = %5
  store i32 0, ptr %8, align 8, !tbaa !179
  %10 = getelementptr inbounds nuw i8, ptr %8, i64 8
  store ptr %2, ptr %10, align 8, !tbaa !181
  %11 = getelementptr inbounds nuw i8, ptr %8, i64 16
  store i32 %4, ptr %11, align 8, !tbaa !190
  %12 = getelementptr inbounds nuw i8, ptr %8, i64 20
  store i32 %3, ptr %12, align 4, !tbaa !182
  %13 = call i32 @Curl_cf_create(ptr noundef nonnull %6, ptr noundef nonnull @Curl_cft_setup, ptr noundef nonnull %8) #10
  %.fr.i = freeze i32 %13
  %.not17.i = icmp eq i32 %.fr.i, 0
  %spec.select.i = select i1 %.not17.i, ptr null, ptr %8
  %14 = load ptr, ptr %6, align 8
  %15 = load ptr, ptr @Curl_cfree, align 8, !tbaa !120
  call void %15(ptr noundef %spec.select.i) #10
  call void @llvm.lifetime.end.p0(i64 8, ptr nonnull %6) #10
  br i1 %.not17.i, label %16, label %17

16:                                               ; preds = %cf_setup_create.exit
  call void @Curl_conn_cf_insert_after(ptr noundef %0, ptr noundef %14) #10
  br label %17

17:                                               ; preds = %cf_setup_create.exit.thread, %cf_setup_create.exit, %16
  %.06.i9 = phi i32 [ 27, %cf_setup_create.exit.thread ], [ %.fr.i, %cf_setup_create.exit ], [ 0, %16 ]
  ret i32 %.06.i9
}